(lp1
(dp2
S'b-globin'
p3
(dp4
S'Mon'
p5
(lp6
I9
aI4
aI9
aI6
aI8
aI9
aI2
aI2
aI2
aI9
aI4
aI9
aI4
aI2
aI2
aI5
aI3
aI3
aI9
aI9
aI3
aI2
aI9
aI9
aI4
aI3
aI2
aI5
aI5
aI3
aI2
aI2
aI2
aI2
aI6
aI4
aI6
aI2
aI4
aI4
aI9
aI9
aI9
aI9
aI4
aI5
aI9
aI2
aI3
aI2
aI9
aI9
aI8
aI2
aI3
aI2
aI2
aI2
aI9
aI9
aI8
aI9
aI3
aI5
aI3
aI3
aI3
aI2
aI2
aI9
aI2
aI3
aI4
aI9
aI3
aI9
aI2
aI2
aI2
aI2
aI9
aI2
aI2
aI7
aI2
aI2
aI5
aI3
aI5
aI9
aI4
aI2
aI5
aI8
aI3
aI2
aI2
aI4
aI5
aI2
aI3
aI2
aI9
aI2
aI2
aI9
aI6
aI9
aI9
aI8
aI3
aI4
aI4
aI5
aI2
aI9
aI9
aI3
aI9
aI3
aI2
aI7
aI2
aI4
aI6
aI4
aI8
aI9
aI2
aI5
aI3
aI4
aI2
aI5
aI9
aI3
aI9
aI3
aI9
aI2
aI5
aI2
aI9
aI3
aI3
aI7
aI5
aI3
aI4
aI6
aI3
aI3
aI2
aI5
aI4
aI6
aI4
aI6
aI3
aI9
aI6
aI2
aI3
aI4
aI2
aI2
aI2
aI2
aI2
aI3
aI5
aI2
aI5
aI7
aI7
aI5
aI2
aI7
aI3
aI3
aI2
aI7
aI6
aI2
aI9
aI3
aI9
aI4
aI3
aI3
aI9
aI2
aI9
aI2
aI9
aI2
aI2
aI8
aI6
aI2
aI2
aI6
aI4
aI7
aI6
aI3
aI2
aI9
aI4
aI4
aI9
aI5
aI2
aI2
aI3
aI2
aI3
aI3
aI9
aI7
aI3
aI9
aI9
aI9
aI2
aI7
aI4
aI9
aI2
aI3
aI2
aI4
aI8
aI4
aI5
aI3
aI2
aI3
aI2
aI3
aI4
aI2
aI8
aI2
aI3
aI5
aI4
aI4
aI4
aI9
aI8
aI2
aI2
aI3
aI2
aI6
aI4
aI3
aI6
aI2
aI3
aI2
aI4
aI4
aI2
aI2
aI3
aI2
aI2
aI2
aI3
aI4
aI9
aI3
aI7
aI2
aI3
aI8
aI7
aI2
aI2
aI7
aI3
aI5
aI2
aI3
aI8
aI3
aI3
aI9
aI9
aI9
aI2
aI2
aI2
aI3
aI2
aI3
aI4
aI6
aI2
aI5
aI2
aI4
aI3
aI4
aI3
aI8
aI3
aI7
aI3
aI3
aI2
aI3
aI6
aI2
aI3
aI7
aI9
aI2
aI4
aI3
aI9
aI2
aI2
aI2
aI4
aI2
aI2
aI9
aI2
aI9
aI2
aI4
aI3
aI2
aI5
aI5
aI2
aI3
aI4
aI3
aI6
aI3
aI3
aI4
aI2
aI9
aI4
aI3
aI2
aI2
aI2
aI3
aI9
aI4
aI4
aI3
aI4
aI3
aI9
aI4
aI4
aI4
aI2
aI2
aI4
aI2
aI2
aI3
aI5
aI9
aI8
aI5
aI3
aI3
aI6
aI2
aI2
aI5
aI8
aI2
aI3
aI9
aI2
aI2
aI2
aI3
aI3
aI2
aI3
aI7
aI9
aI3
aI4
aI3
aI2
aI2
aI4
aI4
aI9
aI2
aI8
aI4
aI3
aI9
aI5
aI8
aI2
aI2
aI3
aI2
aI3
aI2
aI2
aI5
aI4
aI8
aI5
aI2
aI8
aI7
aI4
aI9
aI2
aI2
aI9
aI3
aI4
aI3
aI6
aI8
aI5
aI6
aI8
aI9
aI2
aI6
aI4
aI9
aI9
aI4
aI6
aI3
aI3
aI2
aI2
aI2
aI5
aI2
aI4
aI2
aI2
aI3
aI2
aI3
aI4
aI4
aI2
aI2
aI8
aI2
aI2
aI6
aI4
aI2
aI9
aI2
aI4
aI2
aI2
aI7
aI3
aI3
aI8
aI8
aI2
aI6
aI5
aI9
aI4
aI3
aI4
aI8
aI2
aI3
aI7
aI9
aI3
aI3
aI2
aI2
aI3
aI9
aI9
aI2
aI2
aI4
aI8
aI2
aI2
aI2
aI9
aI4
aI9
aI2
aI2
aI4
aI2
aI9
aI3
aI2
asS'nCD4'
p7
(lp8
I9
aI2
aI8
aI8
aI7
aI6
aI8
aI3
aI9
aI4
aI4
aI6
aI8
aI3
aI9
aI3
aI4
aI9
aI9
aI4
aI4
aI9
aI3
aI4
aI9
aI2
aI7
aI8
aI6
aI3
aI2
aI3
aI4
aI5
aI8
aI4
aI6
aI9
aI9
aI4
aI3
aI3
aI4
aI3
aI5
aI4
aI3
aI3
aI6
aI6
aI7
aI5
aI2
aI8
aI2
aI5
aI9
aI4
aI4
aI8
aI2
aI9
aI6
aI7
aI4
aI7
aI6
aI5
aI9
aI9
aI2
aI4
aI8
aI3
aI4
aI9
aI4
aI3
aI8
aI4
aI9
aI9
aI9
aI3
aI9
aI5
aI8
aI3
aI9
aI7
aI4
aI7
aI4
aI8
aI7
aI6
aI9
aI9
aI9
aI9
aI6
aI9
aI9
aI5
aI7
aI4
aI5
aI2
aI9
aI4
aI3
aI9
aI8
aI9
aI5
aI9
aI4
aI4
aI3
aI9
aI4
aI3
aI3
aI8
aI6
aI6
aI7
aI7
aI7
aI4
aI9
aI4
aI8
aI8
aI3
aI7
aI4
aI6
aI8
aI4
aI2
aI6
aI9
aI7
aI9
aI5
aI8
aI6
aI3
aI9
aI9
aI5
aI5
aI7
aI5
aI9
aI9
aI9
aI8
aI9
aI5
aI9
aI9
aI3
aI4
aI5
aI9
aI9
aI7
aI8
aI6
aI3
aI9
aI9
aI8
aI5
aI3
aI3
aI5
aI3
aI9
aI9
aI5
aI4
aI3
aI9
aI9
aI3
aI9
aI9
aI2
aI4
aI9
aI9
aI8
aI6
aI3
aI6
aI3
aI9
aI9
aI3
aI2
aI4
aI4
aI9
aI9
aI5
aI9
aI9
aI8
aI9
aI5
aI7
aI4
aI9
aI8
aI7
aI9
aI8
aI9
aI8
aI3
aI4
aI3
aI3
aI9
aI7
aI9
aI2
aI7
aI8
aI5
aI4
aI9
aI4
aI7
aI3
aI4
aI8
aI5
aI9
aI7
aI9
aI9
aI7
aI4
aI3
aI6
aI2
aI8
aI2
aI4
aI3
aI4
aI2
aI6
aI7
aI8
aI4
aI3
aI3
aI8
aI3
aI2
aI3
aI9
aI2
aI6
aI6
aI5
aI5
aI9
aI7
aI8
aI8
aI8
aI4
aI6
aI3
aI7
aI2
aI5
aI3
aI7
aI6
aI6
aI5
aI3
aI7
aI7
aI3
aI8
aI4
aI5
aI3
aI4
aI3
aI8
aI9
aI3
aI9
aI6
aI9
aI9
aI5
aI6
aI5
aI4
aI5
aI5
aI8
aI3
aI3
aI3
aI8
aI9
aI9
aI7
aI4
aI4
aI2
aI3
aI8
aI4
aI7
aI3
aI3
aI9
aI7
aI5
aI3
aI9
aI4
aI9
aI9
aI8
aI4
aI6
aI4
aI4
aI3
aI3
aI9
aI6
aI3
aI4
aI5
aI9
aI5
aI4
aI8
aI9
aI4
aI9
aI3
aI9
aI8
aI3
aI3
aI8
aI9
aI9
aI6
aI9
aI9
aI8
aI8
aI9
aI9
aI3
aI3
aI7
aI7
aI3
aI4
aI9
aI9
aI7
aI8
aI8
aI5
aI3
aI9
aI7
aI9
aI9
aI2
aI9
aI9
aI9
aI9
aI7
aI2
aI3
aI9
aI5
aI5
aI4
aI7
aI6
aI7
aI9
aI8
aI4
aI3
aI9
aI9
aI7
aI9
aI5
aI9
aI3
aI5
aI8
aI9
aI4
aI8
aI7
aI5
aI2
aI9
aI6
aI8
aI5
aI4
aI9
aI5
aI4
aI5
aI4
aI5
aI4
aI8
aI6
aI9
aI7
aI9
aI8
aI6
aI4
aI9
aI5
aI9
aI4
aI6
aI3
aI5
aI9
aI4
aI9
aI3
aI9
aI9
aI9
aI5
aI7
aI8
aI7
aI6
aI3
aI3
aI8
aI4
aI4
aI9
aI4
aI2
aI8
aI3
aI9
aI3
aI5
aI9
aI3
aI9
aI8
aI3
aI9
aI9
aI3
aI6
aI6
aI3
aI8
aI3
aI9
aI9
aI4
aI9
aI7
aI8
aI3
aI4
aI8
aI9
aI3
aI6
aI3
aI9
aI4
aI4
asS'Ery'
p9
(lp10
I9
aI4
aI7
aI6
aI4
aI5
aI5
aI5
aI8
aI5
aI9
aI5
aI4
aI8
aI9
aI4
aI9
aI9
aI4
aI8
aI4
aI4
aI9
aI5
aI5
aI4
aI4
aI4
aI5
aI9
aI4
aI4
aI4
aI4
aI4
aI4
aI8
aI7
aI9
aI4
aI4
aI5
aI5
aI5
aI4
aI4
aI5
aI5
aI4
aI8
aI8
aI5
aI5
aI5
aI8
aI4
aI9
aI5
aI4
aI4
aI4
aI4
aI5
aI3
aI5
aI4
aI3
aI5
aI4
aI6
aI8
aI4
aI4
aI6
aI7
aI6
aI8
aI6
aI4
aI4
aI4
aI4
aI8
aI4
aI8
aI6
aI5
aI5
aI4
aI4
aI4
aI4
aI4
aI5
aI5
aI3
aI4
aI4
aI6
aI9
aI3
aI4
aI4
aI3
aI5
aI4
aI7
aI9
aI5
aI4
aI4
aI9
aI9
aI4
aI5
aI4
aI4
aI4
aI4
aI6
aI4
aI4
aI8
aI7
aI3
aI9
aI4
aI4
aI9
aI7
aI5
aI5
aI4
aI8
aI4
aI4
aI5
aI7
aI4
aI9
aI6
aI8
aI4
aI5
aI3
aI9
aI5
aI5
aI4
aI3
aI4
aI8
aI5
aI4
aI4
aI5
aI9
aI4
aI4
aI8
aI5
aI4
aI5
aI3
aI4
aI3
aI4
aI5
aI4
aI9
aI4
aI4
aI6
aI4
aI9
aI4
aI4
aI5
aI5
aI5
aI9
aI4
aI3
aI5
aI4
aI7
aI9
aI5
aI4
aI9
aI4
aI5
aI7
aI6
aI9
aI9
aI9
aI5
aI4
aI3
aI4
aI4
aI3
aI6
aI5
aI4
aI9
aI5
aI4
aI4
aI8
aI9
aI4
aI5
aI5
aI4
aI4
aI3
aI4
aI4
aI7
aI4
aI4
aI4
aI4
aI6
aI5
aI4
aI4
aI5
aI4
aI4
aI4
aI7
aI3
aI5
aI5
aI9
aI4
aI4
aI4
aI5
aI4
aI4
aI4
aI8
aI7
aI4
aI7
aI9
aI4
aI4
aI4
aI3
aI9
aI4
aI7
aI8
aI4
aI5
aI9
aI6
aI4
aI6
aI5
aI3
aI4
aI6
aI9
aI4
aI5
aI4
aI4
aI4
aI8
aI8
aI5
aI4
aI9
aI4
aI7
aI9
aI4
aI4
aI4
aI4
aI4
aI5
aI5
aI7
aI3
aI5
aI4
aI3
aI7
aI9
aI5
aI4
aI4
aI4
aI4
aI7
aI7
aI3
aI4
aI4
aI4
aI4
aI4
aI8
aI5
aI4
aI4
aI7
aI4
aI4
aI4
aI4
aI5
aI9
aI5
aI3
aI6
aI7
aI5
aI7
aI5
aI4
aI4
aI4
aI6
aI4
aI9
aI5
aI5
aI4
aI4
aI3
aI4
aI4
aI5
aI9
aI5
aI4
aI9
aI5
aI5
aI4
aI8
aI9
aI5
aI9
aI4
aI6
aI4
aI4
aI4
aI4
aI4
aI4
aI4
aI5
aI4
aI5
aI4
aI4
aI5
aI5
aI4
aI9
aI8
aI7
aI7
aI7
aI6
aI9
aI4
aI5
aI7
aI8
aI8
aI4
aI3
aI3
aI4
aI4
aI8
aI6
aI4
aI4
aI8
aI3
aI4
aI5
aI5
aI3
aI5
aI5
aI4
aI9
aI4
aI9
aI9
aI7
aI5
aI6
aI4
aI9
aI4
aI5
aI5
aI8
aI5
aI4
aI8
aI9
aI9
aI4
aI4
aI8
aI4
aI5
aI9
aI7
aI5
aI5
aI5
aI5
aI5
aI9
aI9
aI9
aI5
aI4
aI8
aI6
aI5
aI4
aI4
aI6
aI4
aI3
aI4
aI4
aI7
aI6
aI4
aI9
aI5
aI4
aI9
aI5
aI5
aI4
aI9
aI4
aI8
aI9
aI4
aI5
aI7
aI6
aI8
aI9
aI6
aI3
aI4
aI9
aI4
aI3
aI4
aI8
aI7
aI4
aI4
aI8
aI4
aI9
aI5
aI6
aI3
aI5
aI8
aI8
aI4
aI4
aI5
aI4
aI9
aI8
aI5
aI4
aI4
aI4
aI5
aI4
aI4
aI4
aI7
aI4
aI9
assa(dp11
g3
(dp12
g5
(lp13
(lp14
F0
aF99.0234375
aF95.8984375
aF92.3828125
aF75.9765625
aF67.7734375
aF64.2578125
aF65.8203125
aF43.9453125
aF20.5078125
aF17.3828125
aF33.3984375
aF22.4609375
aF15.625
aF5.2734375
aF2.1484375
aF8.203125
aF0.5859375
aF9.375
aF0
aF0
aF0
aF0.9765625
aF6.25
aF0.1953125
aF0.5859375
aF3.3203125
aF0.390625
aa(lp15
F99.0234375
aF0
aF94.921875
aF91.9921875
aF75.9765625
aF67.578125
aF64.0625
aF65.625
aF43.75
aF20.703125
aF17.578125
aF33.203125
aF22.65625
aF16.015625
aF5.46875
aF2.34375
aF8.59375
aF0.78125
aF9.375
aF0.1953125
aF0.1953125
aF0.1953125
aF0.9765625
aF6.25
aF0.1953125
aF0.5859375
aF3.3203125
aF0.390625
aa(lp16
F95.8984375
aF94.921875
aF0
aF89.453125
aF74.8046875
aF67.1875
aF64.0625
aF65.234375
aF46.2890625
aF20.703125
aF18.5546875
aF33.984375
aF23.6328125
aF16.796875
aF5.859375
aF3.125
aF9.765625
aF1.5625
aF10.3515625
aF0.5859375
aF0.5859375
aF0.5859375
aF1.3671875
aF7.2265625
aF0.1953125
aF0.5859375
aF3.3203125
aF0.390625
aa(lp17
F92.3828125
aF91.9921875
aF89.453125
aF0
aF81.640625
aF72.65625
aF68.5546875
aF70.8984375
aF44.53125
aF20.1171875
aF16.9921875
aF33.3984375
aF21.2890625
aF15.4296875
aF5.078125
aF2.1484375
aF7.6171875
aF0.5859375
aF8.984375
aF0
aF0
aF0
aF0.9765625
aF6.0546875
aF0.1953125
aF0.5859375
aF3.3203125
aF0.390625
aa(lp18
F75.9765625
aF75.9765625
aF74.8046875
aF81.640625
aF0
aF77.34375
aF74.4140625
aF73.6328125
aF45.1171875
aF21.09375
aF17.1875
aF36.71875
aF20.8984375
aF15.625
aF5.2734375
aF2.34375
aF7.8125
aF0.5859375
aF10.15625
aF0
aF0
aF0
aF0.9765625
aF6.4453125
aF0.1953125
aF0.5859375
aF3.7109375
aF0.390625
aa(lp19
F67.7734375
aF67.578125
aF67.1875
aF72.65625
aF77.34375
aF0
aF87.6953125
aF85.7421875
aF50.78125
aF22.4609375
aF18.5546875
aF38.4765625
aF21.875
aF16.40625
aF5.2734375
aF2.734375
aF8.3984375
aF0.9765625
aF11.5234375
aF0.390625
aF0.390625
aF0.390625
aF1.3671875
aF7.2265625
aF0.1953125
aF0.9765625
aF3.90625
aF0.78125
aa(lp20
F64.2578125
aF64.0625
aF64.0625
aF68.5546875
aF74.4140625
aF87.6953125
aF0
aF80.6640625
aF52.34375
aF24.21875
aF19.921875
aF41.015625
aF23.046875
aF17.7734375
aF5.859375
aF2.734375
aF9.1796875
aF1.171875
aF13.671875
aF0.390625
aF0.390625
aF0.390625
aF1.5625
aF7.6171875
aF0
aF0.78125
aF4.296875
aF0.78125
aa(lp21
F65.8203125
aF65.625
aF65.234375
aF70.8984375
aF73.6328125
aF85.7421875
aF80.6640625
aF0
aF59.9609375
aF25.1953125
aF22.0703125
aF37.5
aF26.3671875
aF19.921875
aF7.6171875
aF3.7109375
aF10.546875
aF1.3671875
aF11.5234375
aF0.5859375
aF0.5859375
aF0.5859375
aF1.5625
aF7.2265625
aF0.1953125
aF0.5859375
aF3.515625
aF0.390625
aa(lp22
F43.9453125
aF43.75
aF46.2890625
aF44.53125
aF45.1171875
aF50.78125
aF52.34375
aF59.9609375
aF0
aF48.6328125
aF51.953125
aF46.09375
aF51.7578125
aF47.265625
aF34.5703125
aF24.8046875
aF26.5625
aF15.4296875
aF21.2890625
aF12.6953125
aF12.890625
aF12.890625
aF12.5
aF19.3359375
aF8.59375
aF4.6875
aF7.03125
aF4.6875
aa(lp23
F20.5078125
aF20.703125
aF20.703125
aF20.1171875
aF21.09375
aF22.4609375
aF24.21875
aF25.1953125
aF48.6328125
aF0
aF72.65625
aF52.734375
aF65.0390625
aF64.0625
aF49.8046875
aF40.4296875
aF42.3828125
aF31.0546875
aF31.8359375
aF29.1015625
aF28.90625
aF28.90625
aF27.1484375
aF31.25
aF22.265625
aF16.40625
aF16.40625
aF16.2109375
aa(lp24
F17.3828125
aF17.578125
aF18.5546875
aF16.9921875
aF17.1875
aF18.5546875
aF19.921875
aF22.0703125
aF51.953125
aF72.65625
aF0
aF49.609375
aF79.4921875
aF83.203125
aF64.84375
aF51.171875
aF42.3828125
aF36.5234375
aF26.171875
aF32.421875
aF33.0078125
aF33.0078125
aF30.6640625
aF31.640625
aF23.828125
aF15.0390625
aF14.453125
aF14.6484375
aa(lp25
F33.3984375
aF33.203125
aF33.984375
aF33.3984375
aF36.71875
aF38.4765625
aF41.015625
aF37.5
aF46.09375
aF52.734375
aF49.609375
aF0
aF45.8984375
aF42.96875
aF31.0546875
aF25.5859375
aF30.2734375
aF21.484375
aF25.390625
aF19.53125
aF19.7265625
aF19.7265625
aF19.3359375
aF24.0234375
aF15.234375
aF13.0859375
aF15.234375
aF13.671875
aa(lp26
F22.4609375
aF22.65625
aF23.6328125
aF21.2890625
aF20.8984375
aF21.875
aF23.046875
aF26.3671875
aF51.7578125
aF65.0390625
aF79.4921875
aF45.8984375
aF0
aF89.2578125
aF57.2265625
aF45.1171875
aF37.109375
aF32.6171875
aF22.4609375
aF29.1015625
aF29.296875
aF29.296875
aF26.5625
aF28.125
aF20.5078125
aF13.28125
aF12.890625
aF13.0859375
aa(lp27
F15.625
aF16.015625
aF16.796875
aF15.4296875
aF15.625
aF16.40625
aF17.7734375
aF19.921875
aF47.265625
aF64.0625
aF83.203125
aF42.96875
aF89.2578125
aF0
aF66.6015625
aF54.296875
aF41.6015625
aF40.4296875
aF26.171875
aF35.3515625
aF35.7421875
aF35.7421875
aF32.03125
aF32.8125
aF25.78125
aF16.6015625
aF15.8203125
aF16.2109375
aa(lp28
F5.2734375
aF5.46875
aF5.859375
aF5.078125
aF5.2734375
aF5.2734375
aF5.859375
aF7.6171875
aF34.5703125
aF49.8046875
aF64.84375
aF31.0546875
aF57.2265625
aF66.6015625
aF0
aF77.9296875
aF48.828125
aF62.6953125
aF37.3046875
aF57.03125
aF57.6171875
aF57.6171875
aF50.78125
aF46.6796875
aF43.9453125
aF26.5625
aF24.8046875
aF25.78125
aa(lp29
F2.1484375
aF2.34375
aF3.125
aF2.1484375
aF2.34375
aF2.734375
aF2.734375
aF3.7109375
aF24.8046875
aF40.4296875
aF51.171875
aF25.5859375
aF45.1171875
aF54.296875
aF77.9296875
aF0
aF54.8828125
aF76.5625
aF40.8203125
aF70.703125
aF71.484375
aF71.2890625
aF60.7421875
aF51.5625
aF53.125
aF30.2734375
aF28.90625
aF28.90625
aa(lp30
F8.203125
aF8.59375
aF9.765625
aF7.6171875
aF7.8125
aF8.3984375
aF9.1796875
aF10.546875
aF26.5625
aF42.3828125
aF42.3828125
aF30.2734375
aF37.109375
aF41.6015625
aF48.828125
aF54.8828125
aF0
aF52.734375
aF46.6796875
aF51.5625
aF51.3671875
aF51.3671875
aF49.609375
aF46.2890625
aF48.4375
aF33.59375
aF33.203125
aF32.2265625
aa(lp31
F0.5859375
aF0.78125
aF1.5625
aF0.5859375
aF0.5859375
aF0.9765625
aF1.171875
aF1.3671875
aF15.4296875
aF31.0546875
aF36.5234375
aF21.484375
aF32.6171875
aF40.4296875
aF62.6953125
aF76.5625
aF52.734375
aF0
aF46.09375
aF93.359375
aF94.3359375
aF94.140625
aF74.609375
aF57.2265625
aF63.4765625
aF31.8359375
aF30.078125
aF30.6640625
aa(lp32
F9.375
aF9.375
aF10.3515625
aF8.984375
aF10.15625
aF11.5234375
aF13.671875
aF11.5234375
aF21.2890625
aF31.8359375
aF26.171875
aF25.390625
aF22.4609375
aF26.171875
aF37.3046875
aF40.8203125
aF46.6796875
aF46.09375
aF0
aF49.0234375
aF48.4375
aF48.4375
aF49.8046875
aF52.1484375
aF49.609375
aF43.1640625
aF42.7734375
aF39.0625
aa(lp33
F0
aF0.1953125
aF0.5859375
aF0
aF0
aF0.390625
aF0.390625
aF0.5859375
aF12.6953125
aF29.1015625
aF32.421875
aF19.53125
aF29.1015625
aF35.3515625
aF57.03125
aF70.703125
aF51.5625
aF93.359375
aF49.0234375
aF0
aF98.4375
aF98.6328125
aF79.296875
aF58.7890625
aF68.359375
aF33.59375
aF31.4453125
aF32.421875
aa(lp34
F0
aF0.1953125
aF0.5859375
aF0
aF0
aF0.390625
aF0.390625
aF0.5859375
aF12.890625
aF28.90625
aF33.0078125
aF19.7265625
aF29.296875
aF35.7421875
aF57.6171875
aF71.484375
aF51.3671875
aF94.3359375
aF48.4375
aF98.4375
aF0
aF99.8046875
aF79.296875
aF58.203125
aF67.96875
aF33.203125
aF31.640625
aF32.03125
aa(lp35
F0
aF0.1953125
aF0.5859375
aF0
aF0
aF0.390625
aF0.390625
aF0.5859375
aF12.890625
aF28.90625
aF33.0078125
aF19.7265625
aF29.296875
aF35.7421875
aF57.6171875
aF71.2890625
aF51.3671875
aF94.140625
aF48.4375
aF98.6328125
aF99.8046875
aF0
aF79.4921875
aF58.203125
aF68.1640625
aF33.203125
aF31.640625
aF32.03125
aa(lp36
F0.9765625
aF0.9765625
aF1.3671875
aF0.9765625
aF0.9765625
aF1.3671875
aF1.5625
aF1.5625
aF12.5
aF27.1484375
aF30.6640625
aF19.3359375
aF26.5625
aF32.03125
aF50.78125
aF60.7421875
aF49.609375
aF74.609375
aF49.8046875
aF79.296875
aF79.296875
aF79.4921875
aF0
aF65.0390625
aF78.3203125
aF39.84375
aF36.5234375
aF35.7421875
aa(lp37
F6.25
aF6.25
aF7.2265625
aF6.0546875
aF6.4453125
aF7.2265625
aF7.6171875
aF7.2265625
aF19.3359375
aF31.25
aF31.640625
aF24.0234375
aF28.125
aF32.8125
aF46.6796875
aF51.5625
aF46.2890625
aF57.2265625
aF52.1484375
aF58.7890625
aF58.203125
aF58.203125
aF65.0390625
aF0
aF66.2109375
aF39.453125
aF36.71875
aF34.375
aa(lp38
F0.1953125
aF0.1953125
aF0.1953125
aF0.1953125
aF0.1953125
aF0.1953125
aF0
aF0.1953125
aF8.59375
aF22.265625
aF23.828125
aF15.234375
aF20.5078125
aF25.78125
aF43.9453125
aF53.125
aF48.4375
aF63.4765625
aF49.609375
aF68.359375
aF67.96875
aF68.1640625
aF78.3203125
aF66.2109375
aF0
aF51.953125
aF45.5078125
aF44.3359375
aa(lp39
F0.5859375
aF0.5859375
aF0.5859375
aF0.5859375
aF0.5859375
aF0.9765625
aF0.78125
aF0.5859375
aF4.6875
aF16.40625
aF15.0390625
aF13.0859375
aF13.28125
aF16.6015625
aF26.5625
aF30.2734375
aF33.59375
aF31.8359375
aF43.1640625
aF33.59375
aF33.203125
aF33.203125
aF39.84375
aF39.453125
aF51.953125
aF0
aF75.78125
aF86.328125
aa(lp40
F3.3203125
aF3.3203125
aF3.3203125
aF3.3203125
aF3.7109375
aF3.90625
aF4.296875
aF3.515625
aF7.03125
aF16.40625
aF14.453125
aF15.234375
aF12.890625
aF15.8203125
aF24.8046875
aF28.90625
aF33.203125
aF30.078125
aF42.7734375
aF31.4453125
aF31.640625
aF31.640625
aF36.5234375
aF36.71875
aF45.5078125
aF75.78125
aF0
aF83.7890625
aa(lp41
F0.390625
aF0.390625
aF0.390625
aF0.390625
aF0.390625
aF0.78125
aF0.78125
aF0.390625
aF4.6875
aF16.2109375
aF14.6484375
aF13.671875
aF13.0859375
aF16.2109375
aF25.78125
aF28.90625
aF32.2265625
aF30.6640625
aF39.0625
aF32.421875
aF32.03125
aF32.03125
aF35.7421875
aF34.375
aF44.3359375
aF86.328125
aF83.7890625
aF0
aasg7
(lp42
(lp43
F0
aF98.406374501992033
aF96.812749003984067
aF94.023904382470121
aF47.808764940239044
aF39.04382470119522
aF11.553784860557768
aF7.9681274900398407
aF4.1832669322709162
aF14.54183266932271
aF0.59760956175298807
aF2.3904382470119523
aF0.59760956175298807
aF4.9800796812749004
aF0.19920318725099601
aF4.1832669322709162
aF0.19920318725099601
aF0.19920318725099601
aF0.19920318725099601
aF0.19920318725099601
aF0.79681274900398402
aF0.19920318725099601
aF0
aF0.59760956175298807
aF0.59760956175298807
aF0.19920318725099601
aa(lp44
F98.406374501992033
aF0
aF95.617529880478088
aF92.828685258964143
aF47.211155378486055
aF38.446215139442231
aF11.752988047808765
aF8.1673306772908365
aF4.3824701195219129
aF14.940239043824702
aF0.59760956175298807
aF2.788844621513944
aF0.99601593625498008
aF5.1792828685258963
aF0.39840637450199201
aF4.3824701195219129
aF0.39840637450199201
aF0.39840637450199201
aF0.39840637450199201
aF0.39840637450199201
aF1.1952191235059761
aF0.39840637450199201
aF0
aF0.59760956175298807
aF0.59760956175298807
aF0.19920318725099601
aa(lp45
F96.812749003984067
aF95.617529880478088
aF0
aF95.2191235059761
aF50.199203187250994
aF39.442231075697208
aF11.752988047808765
aF7.9681274900398407
aF4.1832669322709162
aF14.741035856573706
aF0.59760956175298807
aF2.3904382470119523
aF0.59760956175298807
aF4.9800796812749004
aF0.19920318725099601
aF4.1832669322709162
aF0.19920318725099601
aF0.19920318725099601
aF0.19920318725099601
aF0.19920318725099601
aF0.39840637450199201
aF0.19920318725099601
aF0
aF0.59760956175298807
aF0.79681274900398402
aF0.19920318725099601
aa(lp46
F94.023904382470121
aF92.828685258964143
aF95.2191235059761
aF0
aF52.589641434262944
aF41.43426294820717
aF12.350597609561753
aF8.1673306772908365
aF4.3824701195219129
aF15.139442231075698
aF0.59760956175298807
aF2.3904382470119523
aF0.59760956175298807
aF5.3784860557768921
aF0.19920318725099601
aF4.3824701195219129
aF0.19920318725099601
aF0.19920318725099601
aF0.19920318725099601
aF0.19920318725099601
aF0.39840637450199201
aF0.19920318725099601
aF0
aF0.79681274900398402
aF0.59760956175298807
aF0.19920318725099601
aa(lp47
F47.808764940239044
aF47.211155378486055
aF50.199203187250994
aF52.589641434262944
aF0
aF76.095617529880471
aF23.904382470119522
aF15.139442231075698
aF8.5657370517928282
aF25.099601593625497
aF3.3864541832669319
aF3.3864541832669319
aF0.59760956175298807
aF10.159362549800797
aF0.19920318725099601
aF8.9641434262948216
aF0.19920318725099601
aF0.19920318725099601
aF0.19920318725099601
aF0.19920318725099601
aF0.99601593625498008
aF0.79681274900398402
aF0
aF0.79681274900398402
aF1.7928286852589643
aF0.19920318725099601
aa(lp48
F39.04382470119522
aF38.446215139442231
aF39.442231075697208
aF41.43426294820717
aF76.095617529880471
aF0
aF28.884462151394423
aF17.729083665338646
aF11.155378486055776
aF27.290836653386453
aF4.1832669322709162
aF3.7848605577689245
aF0.59760956175298807
aF12.94820717131474
aF0.19920318725099601
aF12.94820717131474
aF0.19920318725099601
aF0.19920318725099601
aF0.19920318725099601
aF0.19920318725099601
aF2.5896414342629481
aF1.593625498007968
aF0.59760956175298807
aF1.593625498007968
aF3.1872509960159361
aF0.59760956175298807
aa(lp49
F11.553784860557768
aF11.752988047808765
aF11.752988047808765
aF12.350597609561753
aF23.904382470119522
aF28.884462151394423
aF0
aF45.617529880478088
aF61.952191235059765
aF25.298804780876495
aF47.011952191235061
aF39.243027888446214
aF22.310756972111552
aF37.848605577689241
aF15.936254980079681
aF21.314741035856574
aF13.944223107569719
aF14.143426294820719
aF14.143426294820719
aF14.342629482071715
aF15.53784860557769
aF12.94820717131474
aF4.5816733067729087
aF2.1912350597609564
aF4.3824701195219129
aF1.7928286852589643
aa(lp50
F7.9681274900398407
aF8.1673306772908365
aF7.9681274900398407
aF8.1673306772908365
aF15.139442231075698
aF17.729083665338646
aF45.617529880478088
aF0
aF60.756972111553786
aF51.394422310756973
aF30.876494023904382
aF27.689243027888445
aF17.131474103585656
aF41.832669322709165
aF12.549800796812749
aF19.52191235059761
aF11.553784860557768
aF11.553784860557768
aF11.553784860557768
aF11.553784860557768
aF11.952191235059761
aF11.354581673306772
aF6.3745019920318722
aF5.1792828685258963
aF7.3705179282868531
aF6.1752988047808763
aa(lp51
F4.1832669322709162
aF4.3824701195219129
aF4.1832669322709162
aF4.3824701195219129
aF8.5657370517928282
aF11.155378486055776
aF61.952191235059765
aF60.756972111553786
aF0
aF35.458167330677291
aF49.800796812749006
aF51.593625498007967
aF31.075697211155379
aF45.418326693227087
aF21.713147410358566
aF18.525896414342629
aF18.725099601593627
aF18.725099601593627
aF18.725099601593627
aF18.525896414342629
aF19.123505976095618
aF15.139442231075698
aF5.9760956175298805
aF2.788844621513944
aF4.7808764940239046
aF3.3864541832669319
aa(lp52
F14.54183266932271
aF14.940239043824702
aF14.741035856573706
aF15.139442231075698
aF25.099601593625497
aF27.290836653386453
aF25.298804780876495
aF51.394422310756973
aF35.458167330677291
aF0
aF14.143426294820719
aF15.936254980079681
aF10.159362549800797
aF31.274900398406373
aF7.7689243027888448
aF16.334661354581673
aF7.1713147410358573
aF7.1713147410358573
aF7.1713147410358573
aF7.1713147410358573
aF8.7649402390438258
aF8.1673306772908365
aF5.1792828685258963
aF5.9760956175298805
aF7.1713147410358573
aF7.1713147410358573
aa(lp53
F0.59760956175298807
aF0.59760956175298807
aF0.59760956175298807
aF0.59760956175298807
aF3.3864541832669319
aF4.1832669322709162
aF47.011952191235061
aF30.876494023904382
aF49.800796812749006
aF14.143426294820719
aF0
aF41.235059760956176
aF32.669322709163346
aF34.262948207171313
aF31.075697211155379
aF26.49402390438247
aF29.282868525896415
aF29.482071713147413
aF29.482071713147413
aF31.474103585657371
aF32.071713147410357
aF33.665338645418323
aF29.482071713147413
aF8.7649402390438258
aF14.54183266932271
aF9.9601593625498008
aa(lp54
F2.3904382470119523
aF2.788844621513944
aF2.3904382470119523
aF2.3904382470119523
aF3.3864541832669319
aF3.7848605577689245
aF39.243027888446214
aF27.689243027888445
aF51.593625498007967
aF15.936254980079681
aF41.235059760956176
aF0
aF69.721115537848604
aF31.872509960159363
aF57.968127490039848
aF15.139442231075698
aF50.996015936254977
aF51.394422310756973
aF50.996015936254977
aF46.613545816733065
aF29.681274900398407
aF21.314741035856574
aF9.3625498007968133
aF2.9880478087649402
aF5.7768924302788838
aF3.1872509960159361
aa(lp55
F0.59760956175298807
aF0.99601593625498008
aF0.59760956175298807
aF0.59760956175298807
aF0.59760956175298807
aF0.59760956175298807
aF22.310756972111552
aF17.131474103585656
aF31.075697211155379
aF10.159362549800797
aF32.669322709163346
aF69.721115537848604
aF0
aF26.892430278884461
aF85.059760956175296
aF14.342629482071715
aF75.896414342629484
aF76.892430278884461
aF76.494023904382473
aF68.924302788844628
aF38.047808764940235
aF23.50597609561753
aF10.756972111553784
aF3.7848605577689245
aF5.7768924302788838
aF3.9840637450199203
aa(lp56
F4.9800796812749004
aF5.1792828685258963
aF4.9800796812749004
aF5.3784860557768921
aF10.159362549800797
aF12.94820717131474
aF37.848605577689241
aF41.832669322709165
aF45.418326693227087
aF31.274900398406373
aF34.262948207171313
aF31.872509960159363
aF26.892430278884461
aF0
aF20.119521912350596
aF19.721115537848604
aF18.924302788844621
aF18.924302788844621
aF19.123505976095618
aF18.725099601593627
aF21.91235059760956
aF18.326693227091635
aF11.155378486055776
aF7.1713147410358573
aF13.147410358565736
aF6.7729083665338639
aa(lp57
F0.19920318725099601
aF0.39840637450199201
aF0.19920318725099601
aF0.19920318725099601
aF0.19920318725099601
aF0.19920318725099601
aF15.936254980079681
aF12.549800796812749
aF21.713147410358566
aF7.7689243027888448
aF31.075697211155379
aF57.968127490039848
aF85.059760956175296
aF20.119521912350596
aF0
aF15.139442231075698
aF90.836653386454174
aF91.832669322709165
aF91.434262948207163
aF83.067729083665341
aF45.019920318725099
aF26.892430278884461
aF12.350597609561753
aF3.9840637450199203
aF5.7768924302788838
aF4.1832669322709162
aa(lp58
F4.1832669322709162
aF4.3824701195219129
aF4.1832669322709162
aF4.3824701195219129
aF8.9641434262948216
aF12.94820717131474
aF21.314741035856574
aF19.52191235059761
aF18.525896414342629
aF16.334661354581673
aF26.49402390438247
aF15.139442231075698
aF14.342629482071715
aF19.721115537848604
aF15.139442231075698
aF0
aF15.737051792828685
aF15.338645418326694
aF15.338645418326694
aF15.936254980079681
aF24.900398406374503
aF24.900398406374503
aF36.055776892430281
aF25.099601593625497
aF36.055776892430281
aF22.310756972111552
aa(lp59
F0.19920318725099601
aF0.39840637450199201
aF0.19920318725099601
aF0.19920318725099601
aF0.19920318725099601
aF0.19920318725099601
aF13.944223107569719
aF11.553784860557768
aF18.725099601593627
aF7.1713147410358573
aF29.282868525896415
aF50.996015936254977
aF75.896414342629484
aF18.924302788844621
aF90.836653386454174
aF15.737051792828685
aF0
aF97.410358565737056
aF97.410358565737056
aF89.04382470119522
aF48.406374501992033
aF29.880478087649404
aF13.944223107569719
aF4.1832669322709162
aF6.3745019920318722
aF4.5816733067729087
aa(lp60
F0.19920318725099601
aF0.39840637450199201
aF0.19920318725099601
aF0.19920318725099601
aF0.19920318725099601
aF0.19920318725099601
aF14.143426294820719
aF11.553784860557768
aF18.725099601593627
aF7.1713147410358573
aF29.482071713147413
aF51.394422310756973
aF76.892430278884461
aF18.924302788844621
aF91.832669322709165
aF15.338645418326694
aF97.410358565737056
aF0
aF99.601593625498012
aF89.243027888446207
aF48.804780876494021
aF29.282868525896415
aF12.94820717131474
aF3.9840637450199203
aF5.7768924302788838
aF4.1832669322709162
aa(lp61
F0.19920318725099601
aF0.39840637450199201
aF0.19920318725099601
aF0.19920318725099601
aF0.19920318725099601
aF0.19920318725099601
aF14.143426294820719
aF11.553784860557768
aF18.725099601593627
aF7.1713147410358573
aF29.482071713147413
aF50.996015936254977
aF76.494023904382473
aF19.123505976095618
aF91.434262948207163
aF15.338645418326694
aF97.410358565737056
aF99.601593625498012
aF0
aF89.243027888446207
aF49.203187250996017
aF29.681274900398407
aF13.147410358565736
aF3.9840637450199203
aF5.7768924302788838
aF4.1832669322709162
aa(lp62
F0.19920318725099601
aF0.39840637450199201
aF0.19920318725099601
aF0.19920318725099601
aF0.19920318725099601
aF0.19920318725099601
aF14.342629482071715
aF11.553784860557768
aF18.525896414342629
aF7.1713147410358573
aF31.474103585657371
aF46.613545816733065
aF68.924302788844628
aF18.725099601593627
aF83.067729083665341
aF15.936254980079681
aF89.04382470119522
aF89.243027888446207
aF89.243027888446207
aF0
aF55.179282868525888
aF35.856573705179287
aF17.729083665338646
aF3.9840637450199203
aF7.1713147410358573
aF4.1832669322709162
aa(lp63
F0.79681274900398402
aF1.1952191235059761
aF0.39840637450199201
aF0.39840637450199201
aF0.99601593625498008
aF2.5896414342629481
aF15.53784860557769
aF11.952191235059761
aF19.123505976095618
aF8.7649402390438258
aF32.071713147410357
aF29.681274900398407
aF38.047808764940235
aF21.91235059760956
aF45.019920318725099
aF24.900398406374503
aF48.406374501992033
aF48.804780876494021
aF49.203187250996017
aF55.179282868525888
aF0
aF51.394422310756973
aF35.059760956175303
aF13.745019920318724
aF22.509960159362549
aF12.549800796812749
aa(lp64
F0.19920318725099601
aF0.39840637450199201
aF0.19920318725099601
aF0.19920318725099601
aF0.79681274900398402
aF1.593625498007968
aF12.94820717131474
aF11.354581673306772
aF15.139442231075698
aF8.1673306772908365
aF33.665338645418323
aF21.314741035856574
aF23.50597609561753
aF18.326693227091635
aF26.892430278884461
aF24.900398406374503
aF29.880478087649404
aF29.282868525896415
aF29.681274900398407
aF35.856573705179287
aF51.394422310756973
aF0
aF57.569721115537853
aF23.705179282868528
aF34.661354581673308
aF19.721115537848604
aa(lp65
F0
aF0
aF0
aF0
aF0
aF0.59760956175298807
aF4.5816733067729087
aF6.3745019920318722
aF5.9760956175298805
aF5.1792828685258963
aF29.482071713147413
aF9.3625498007968133
aF10.756972111553784
aF11.155378486055776
aF12.350597609561753
aF36.055776892430281
aF13.944223107569719
aF12.94820717131474
aF13.147410358565736
aF17.729083665338646
aF35.059760956175303
aF57.569721115537853
aF0
aF46.414342629482071
aF50.199203187250994
aF40.438247011952186
aa(lp66
F0.59760956175298807
aF0.59760956175298807
aF0.59760956175298807
aF0.79681274900398402
aF0.79681274900398402
aF1.593625498007968
aF2.1912350597609564
aF5.1792828685258963
aF2.788844621513944
aF5.9760956175298805
aF8.7649402390438258
aF2.9880478087649402
aF3.7848605577689245
aF7.1713147410358573
aF3.9840637450199203
aF25.099601593625497
aF4.1832669322709162
aF3.9840637450199203
aF3.9840637450199203
aF3.9840637450199203
aF13.745019920318724
aF23.705179282868528
aF46.414342629482071
aF0
aF57.768924302788847
aF82.270916334661365
aa(lp67
F0.59760956175298807
aF0.59760956175298807
aF0.79681274900398402
aF0.59760956175298807
aF1.7928286852589643
aF3.1872509960159361
aF4.3824701195219129
aF7.3705179282868531
aF4.7808764940239046
aF7.1713147410358573
aF14.54183266932271
aF5.7768924302788838
aF5.7768924302788838
aF13.147410358565736
aF5.7768924302788838
aF36.055776892430281
aF6.3745019920318722
aF5.7768924302788838
aF5.7768924302788838
aF7.1713147410358573
aF22.509960159362549
aF34.661354581673308
aF50.199203187250994
aF57.768924302788847
aF0
aF57.370517928286858
aa(lp68
F0.19920318725099601
aF0.19920318725099601
aF0.19920318725099601
aF0.19920318725099601
aF0.19920318725099601
aF0.59760956175298807
aF1.7928286852589643
aF6.1752988047808763
aF3.3864541832669319
aF7.1713147410358573
aF9.9601593625498008
aF3.1872509960159361
aF3.9840637450199203
aF6.7729083665338639
aF4.1832669322709162
aF22.310756972111552
aF4.5816733067729087
aF4.1832669322709162
aF4.1832669322709162
aF4.1832669322709162
aF12.549800796812749
aF19.721115537848604
aF40.438247011952186
aF82.270916334661365
aF57.370517928286858
aF0
aasg9
(lp69
(lp70
F0
aF98.003992015968066
aF97.80439121756487
aF99.401197604790411
aF76.646706586826355
aF66.666666666666657
aF14.171656686626747
aF6.3872255489021947
aF6.1876247504990021
aF6.1876247504990021
aF5.9880239520958085
aF5.9880239520958085
aF5.9880239520958085
aF5.9880239520958085
aF2.3952095808383236
aF3.1936127744510974
aF4.7904191616766472
aF0.39920159680638717
aF0
aF0
aF0.19960079840319359
aF0
aF0
aF0
aF0
aF0
aF0
aF0
aa(lp71
F98.003992015968066
aF0
aF96.207584830339314
aF97.405189620758478
aF76.247504990019962
aF65.668662674650705
aF14.97005988023952
aF7.5848303393213579
aF7.3852295409181634
aF7.3852295409181634
aF7.1856287425149699
aF7.1856287425149699
aF7.1856287425149699
aF7.3852295409181634
aF2.7944111776447107
aF3.7924151696606789
aF5.788423153692615
aF0.39920159680638717
aF0
aF0
aF0.39920159680638717
aF0
aF0
aF0
aF0
aF0
aF0
aF0
aa(lp72
F97.80439121756487
aF96.207584830339314
aF0
aF97.205588822355296
aF76.846307385229537
aF66.067864271457083
aF14.97005988023952
aF7.3852295409181634
aF7.1856287425149699
aF7.1856287425149699
aF6.9860279441117763
aF6.9860279441117763
aF6.9860279441117763
aF6.9860279441117763
aF2.9940119760479043
aF3.3932135728542914
aF5.5888223552894214
aF0.39920159680638717
aF0
aF0
aF0.39920159680638717
aF0
aF0
aF0
aF0
aF0
aF0
aF0
aa(lp73
F99.401197604790411
aF97.405189620758478
aF97.205588822355296
aF0
aF76.447105788423158
aF66.067864271457083
aF14.570858283433132
aF6.9860279441117763
aF6.7864271457085827
aF6.7864271457085827
aF6.5868263473053901
aF6.5868263473053901
aF6.5868263473053901
aF6.5868263473053901
aF2.5948103792415167
aF3.5928143712574849
aF5.1896207584830334
aF0.39920159680638717
aF0
aF0
aF0.19960079840319359
aF0
aF0
aF0
aF0
aF0
aF0
aF0
aa(lp74
F76.646706586826355
aF76.247504990019962
aF76.846307385229537
aF76.447105788423158
aF0
aF80.638722554890222
aF19.960079840319363
aF8.7824351297405201
aF8.5828343313373257
aF8.3832335329341312
aF8.3832335329341312
aF8.3832335329341312
aF8.3832335329341312
aF7.9840319361277441
aF3.992015968063872
aF5.5888223552894214
aF6.9860279441117763
aF1.1976047904191618
aF0.79840319361277434
aF0.5988023952095809
aF2.3952095808383236
aF0.5988023952095809
aF0.5988023952095809
aF0.5988023952095809
aF0.19960079840319359
aF0
aF0.19960079840319359
aF0
aa(lp75
F66.666666666666657
aF65.668662674650705
aF66.067864271457083
aF66.067864271457083
aF80.638722554890222
aF0
aF22.954091816367264
aF8.9820359281437128
aF8.7824351297405201
aF8.5828343313373257
aF8.5828343313373257
aF8.3832335329341312
aF8.3832335329341312
aF7.9840319361277441
aF4.9900199600798407
aF5.9880239520958085
aF7.3852295409181634
aF1.1976047904191618
aF0.79840319361277434
aF0.39920159680638717
aF0.79840319361277434
aF0.39920159680638717
aF0.39920159680638717
aF0.39920159680638717
aF0.99800399201596801
aF0.5988023952095809
aF0.79840319361277434
aF0.19960079840319359
aa(lp76
F14.171656686626747
aF14.97005988023952
aF14.97005988023952
aF14.570858283433132
aF19.960079840319363
aF22.954091816367264
aF0
aF44.11177644710579
aF44.311377245508979
aF44.510978043912175
aF44.710578842315371
aF45.109780439121757
aF45.109780439121757
aF45.109780439121757
aF57.884231536926144
aF59.281437125748504
aF48.50299401197605
aF13.77245508982036
aF8.9820359281437128
aF5.3892215568862278
aF4.39121756487026
aF3.5928143712574849
aF3.5928143712574849
aF3.5928143712574849
aF1.996007984031936
aF0
aF0
aF0
aa(lp77
F6.3872255489021947
aF7.5848303393213579
aF7.3852295409181634
aF6.9860279441117763
aF8.7824351297405201
aF8.9820359281437128
aF44.11177644710579
aF0
aF99.800399201596804
aF99.001996007984033
aF99.001996007984033
aF97.205588822355296
aF96.407185628742525
aF92.415169660678643
aF35.32934131736527
aF38.323353293413177
aF37.325349301397203
aF0
aF0.39920159680638717
aF0.19960079840319359
aF0
aF0
aF0
aF0
aF0
aF0
aF0
aF0
aa(lp78
F6.1876247504990021
aF7.3852295409181634
aF7.1856287425149699
aF6.7864271457085827
aF8.5828343313373257
aF8.7824351297405201
aF44.311377245508979
aF99.800399201596804
aF0
aF99.201596806387229
aF99.201596806387229
aF97.405189620758478
aF96.606786427145707
aF92.614770459081839
aF35.528942115768466
aF38.522954091816366
aF37.5249500998004
aF0
aF0.39920159680638717
aF0.19960079840319359
aF0
aF0
aF0
aF0
aF0
aF0
aF0
aF0
aa(lp79
F6.1876247504990021
aF7.3852295409181634
aF7.1856287425149699
aF6.7864271457085827
aF8.3832335329341312
aF8.5828343313373257
aF44.510978043912175
aF99.001996007984033
aF99.201596806387229
aF0
aF99.600798403193608
aF97.80439121756487
aF97.005988023952099
aF92.614770459081839
aF35.32934131736527
aF38.722554890219563
aF37.924151696606785
aF0
aF0.39920159680638717
aF0.19960079840319359
aF0
aF0
aF0
aF0
aF0
aF0
aF0
aF0
aa(lp80
F5.9880239520958085
aF7.1856287425149699
aF6.9860279441117763
aF6.5868263473053901
aF8.3832335329341312
aF8.5828343313373257
aF44.710578842315371
aF99.001996007984033
aF99.201596806387229
aF99.600798403193608
aF0
aF98.203592814371248
aF97.405189620758478
aF93.013972055888232
aF35.32934131736527
aF38.722554890219563
aF37.924151696606785
aF0
aF0.39920159680638717
aF0.19960079840319359
aF0
aF0
aF0
aF0
aF0
aF0
aF0
aF0
aa(lp81
F5.9880239520958085
aF7.1856287425149699
aF6.9860279441117763
aF6.5868263473053901
aF8.3832335329341312
aF8.3832335329341312
aF45.109780439121757
aF97.205588822355296
aF97.405189620758478
aF97.80439121756487
aF98.203592814371248
aF0
aF98.802395209580837
aF94.011976047904184
aF35.728542914171655
aF39.321357285429144
aF38.722554890219563
aF0
aF0.5988023952095809
aF0.19960079840319359
aF0
aF0
aF0
aF0
aF0
aF0
aF0
aF0
aa(lp82
F5.9880239520958085
aF7.1856287425149699
aF6.9860279441117763
aF6.5868263473053901
aF8.3832335329341312
aF8.3832335329341312
aF45.109780439121757
aF96.407185628742525
aF96.606786427145707
aF97.005988023952099
aF97.405189620758478
aF98.802395209580837
aF0
aF94.610778443113773
aF35.728542914171655
aF39.520958083832333
aF39.520958083832333
aF0
aF0.5988023952095809
aF0.19960079840319359
aF0
aF0
aF0
aF0
aF0
aF0
aF0
aF0
aa(lp83
F5.9880239520958085
aF7.3852295409181634
aF6.9860279441117763
aF6.5868263473053901
aF7.9840319361277441
aF7.9840319361277441
aF45.109780439121757
aF92.415169660678643
aF92.614770459081839
aF92.614770459081839
aF93.013972055888232
aF94.011976047904184
aF94.610778443113773
aF0
aF38.323353293413177
aF41.716566866267463
aF43.512974051896208
aF0.5988023952095809
aF0.79840319361277434
aF0.39920159680638717
aF0.19960079840319359
aF0.19960079840319359
aF0.19960079840319359
aF0.19960079840319359
aF0.19960079840319359
aF0
aF0
aF0
aa(lp84
F2.3952095808383236
aF2.7944111776447107
aF2.9940119760479043
aF2.5948103792415167
aF3.992015968063872
aF4.9900199600798407
aF57.884231536926144
aF35.32934131736527
aF35.528942115768466
aF35.32934131736527
aF35.32934131736527
aF35.728542914171655
aF35.728542914171655
aF38.323353293413177
aF0
aF78.642714570858288
aF62.4750499001996
aF29.740518962075846
aF22.355289421157686
aF19.960079840319363
aF16.367265469061877
aF15.768463073852296
aF15.768463073852296
aF15.768463073852296
aF11.57684630738523
aF0
aF0
aF0
aa(lp85
F3.1936127744510974
aF3.7924151696606789
aF3.3932135728542914
aF3.5928143712574849
aF5.5888223552894214
aF5.9880239520958085
aF59.281437125748504
aF38.323353293413177
aF38.522954091816366
aF38.722554890219563
aF38.722554890219563
aF39.321357285429144
aF39.520958083832333
aF41.716566866267463
aF78.642714570858288
aF0
aF70.459081836327343
aF24.750499001996008
aF17.964071856287426
aF16.167664670658681
aF12.17564870259481
aF11.377245508982035
aF11.377245508982035
aF11.377245508982035
aF7.9840319361277441
aF0
aF0
aF0
aa(lp86
F4.7904191616766472
aF5.788423153692615
aF5.5888223552894214
aF5.1896207584830334
aF6.9860279441117763
aF7.3852295409181634
aF48.50299401197605
aF37.325349301397203
aF37.5249500998004
aF37.924151696606785
aF37.924151696606785
aF38.722554890219563
aF39.520958083832333
aF43.512974051896208
aF62.4750499001996
aF70.459081836327343
aF0
aF19.560878243512974
aF16.367265469061877
aF13.77245508982036
aF13.572854291417165
aF11.976047904191617
aF11.976047904191617
aF11.976047904191617
aF9.5808383233532943
aF0.39920159680638717
aF0.79840319361277434
aF0.39920159680638717
aa(lp87
F0.39920159680638717
aF0.39920159680638717
aF0.39920159680638717
aF0.39920159680638717
aF1.1976047904191618
aF1.1976047904191618
aF13.77245508982036
aF0
aF0
aF0
aF0
aF0
aF0
aF0.5988023952095809
aF29.740518962075846
aF24.750499001996008
aF19.560878243512974
aF0
aF81.0379241516966
aF80.439121756487026
aF66.067864271457083
aF73.453093812375243
aF73.852295409181636
aF73.453093812375243
aF55.08982035928144
aF0
aF0.19960079840319359
aF0
aa(lp88
F0
aF0
aF0
aF0
aF0.79840319361277434
aF0.79840319361277434
aF8.9820359281437128
aF0.39920159680638717
aF0.39920159680638717
aF0.39920159680638717
aF0.39920159680638717
aF0.5988023952095809
aF0.5988023952095809
aF0.79840319361277434
aF22.355289421157686
aF17.964071856287426
aF16.367265469061877
aF81.0379241516966
aF0
aF85.229540918163664
aF75.249500998003995
aF81.437125748502993
aF81.636726546906189
aF81.237524950099811
aF61.876247504990026
aF0
aF0.39920159680638717
aF0
aa(lp89
F0
aF0
aF0
aF0
aF0.5988023952095809
aF0.39920159680638717
aF5.3892215568862278
aF0.19960079840319359
aF0.19960079840319359
aF0.19960079840319359
aF0.19960079840319359
aF0.19960079840319359
aF0.19960079840319359
aF0.39920159680638717
aF19.960079840319363
aF16.167664670658681
aF13.77245508982036
aF80.439121756487026
aF85.229540918163664
aF0
aF79.640718562874241
aF90.019960079840317
aF90.618762475049891
aF90.219560878243513
aF61.277445109780437
aF0
aF0.19960079840319359
aF0
aa(lp90
F0.19960079840319359
aF0.39920159680638717
aF0.39920159680638717
aF0.19960079840319359
aF2.3952095808383236
aF0.79840319361277434
aF4.39121756487026
aF0
aF0
aF0
aF0
aF0
aF0
aF0.19960079840319359
aF16.367265469061877
aF12.17564870259481
aF13.572854291417165
aF66.067864271457083
aF75.249500998003995
aF79.640718562874241
aF0
aF88.822355289421168
aF88.223552894211579
aF88.223552894211579
aF70.658682634730539
aF0
aF1.1976047904191618
aF0
aa(lp91
F0
aF0
aF0
aF0
aF0.5988023952095809
aF0.39920159680638717
aF3.5928143712574849
aF0
aF0
aF0
aF0
aF0
aF0
aF0.19960079840319359
aF15.768463073852296
aF11.377245508982035
aF11.976047904191617
aF73.453093812375243
aF81.437125748502993
aF90.019960079840317
aF88.822355289421168
aF0
aF99.401197604790411
aF99.401197604790411
aF65.269461077844312
aF0
aF0.19960079840319359
aF0
aa(lp92
F0
aF0
aF0
aF0
aF0.5988023952095809
aF0.39920159680638717
aF3.5928143712574849
aF0
aF0
aF0
aF0
aF0
aF0
aF0.19960079840319359
aF15.768463073852296
aF11.377245508982035
aF11.976047904191617
aF73.852295409181636
aF81.636726546906189
aF90.618762475049891
aF88.223552894211579
aF99.401197604790411
aF0
aF99.600798403193608
aF65.069860279441116
aF0
aF0.19960079840319359
aF0
aa(lp93
F0
aF0
aF0
aF0
aF0.5988023952095809
aF0.39920159680638717
aF3.5928143712574849
aF0
aF0
aF0
aF0
aF0
aF0
aF0.19960079840319359
aF15.768463073852296
aF11.377245508982035
aF11.976047904191617
aF73.453093812375243
aF81.237524950099811
aF90.219560878243513
aF88.223552894211579
aF99.401197604790411
aF99.600798403193608
aF0
aF65.469061876247508
aF0
aF0.19960079840319359
aF0
aa(lp94
F0
aF0
aF0
aF0
aF0.19960079840319359
aF0.99800399201596801
aF1.996007984031936
aF0
aF0
aF0
aF0
aF0
aF0
aF0.19960079840319359
aF11.57684630738523
aF7.9840319361277441
aF9.5808383233532943
aF55.08982035928144
aF61.876247504990026
aF61.277445109780437
aF70.658682634730539
aF65.269461077844312
aF65.069860279441116
aF65.469061876247508
aF0
aF11.177644710578843
aF13.972055888223553
aF9.1816367265469054
aa(lp95
F0
aF0
aF0
aF0
aF0
aF0.5988023952095809
aF0
aF0
aF0
aF0
aF0
aF0
aF0
aF0
aF0
aF0
aF0.39920159680638717
aF0
aF0
aF0
aF0
aF0
aF0
aF0
aF11.177644710578843
aF0
aF83.632734530938123
aF94.610778443113773
aa(lp96
F0
aF0
aF0
aF0
aF0.19960079840319359
aF0.79840319361277434
aF0
aF0
aF0
aF0
aF0
aF0
aF0
aF0
aF0
aF0
aF0.79840319361277434
aF0.19960079840319359
aF0.39920159680638717
aF0.19960079840319359
aF1.1976047904191618
aF0.19960079840319359
aF0.19960079840319359
aF0.19960079840319359
aF13.972055888223553
aF83.632734530938123
aF0
aF87.824351297405187
aa(lp97
F0
aF0
aF0
aF0
aF0
aF0.19960079840319359
aF0
aF0
aF0
aF0
aF0
aF0
aF0
aF0
aF0
aF0
aF0.39920159680638717
aF0
aF0
aF0
aF0
aF0
aF0
aF0
aF9.1816367265469054
aF94.610778443113773
aF87.824351297405187
aF0
aassa(dp98
g3
(dp99
g5
(dp100
I0
I0
sI1
I2
sI2
I7
sI3
I12
sI4
I65
sI5
I119
sI6
I124
sI7
I135
sI8
I162
sI9
I367
sI10
I378
sI11
I382
sI12
I481
sI13
I484
sI14
I505
sI15
I519
sI16
I532
sI17
I537
sI18
I554
sI19
I561
sI20
I563
sI21
I564
sI22
I577
sI23
I585
sI24
I743
sI25
I771
sI26
I838
sI27
I874
ssg7
(dp101
I0
I0
sI1
I2
sI2
I7
sI3
I12
sI4
I65
sI5
I119
sI6
I162
sI7
I367
sI8
I378
sI9
I382
sI10
I484
sI11
I519
sI12
I524
sI13
I532
sI14
I537
sI15
I554
sI16
I561
sI17
I563
sI18
I564
sI19
I572
sI20
I577
sI21
I585
sI22
I743
sI23
I771
sI24
I838
sI25
I874
ssg9
(dp102
I0
I0
sI1
I2
sI2
I7
sI3
I12
sI4
I65
sI5
I119
sI6
I162
sI7
I285
sI8
I286
sI9
I288
sI10
I289
sI11
I290
sI12
I291
sI13
I294
sI14
I361
sI15
I378
sI16
I382
sI17
I484
sI18
I519
sI19
I537
sI20
I554
sI21
I561
sI22
I563
sI23
I564
sI24
I577
sI25
I771
sI26
I838
sI27
I874
sssa.